target datalayout = "e-m:e-p270:32:32-p271:32:32-p272:64:64-i64:64-i128:128-f80:128-n8:16:32:64-S128"
target triple = "x86_64-pc-linux-gnu"

%struct._address = type { i32, i32, ptr, ptr }

@.str.378 = private unnamed_addr constant [10 x i8] c"Broadcast\00", align 1
@.str.379 = private unnamed_addr constant [7 x i8] c"0x%04x\00", align 1

; Function Attrs: inlinehint nounwind null_pointer_is_valid sspstrong uwtable
define internal zeroext i16 @pletoh16(ptr noundef %0) #7 {
  %2 = alloca ptr, align 8
  store ptr %0, ptr %2, align 8
  %3 = load ptr, ptr %2, align 8
  %4 = getelementptr i8, ptr %3, i64 1
  %5 = load i8, ptr %4, align 1
  %6 = zext i8 %5 to i16
  %7 = zext i16 %6 to i32
  %8 = shl i32 %7, 8
  %9 = load ptr, ptr %2, align 8
  %10 = getelementptr i8, ptr %9, i64 0
  %11 = load i8, ptr %10, align 1
  %12 = zext i8 %11 to i16
  %13 = zext i16 %12 to i32
  %14 = shl i32 %13, 0
  %15 = or i32 %8, %14
  %16 = trunc i32 %15 to i16
  ret i16 %16
}

; Function Attrs: null_pointer_is_valid sspstrong uwtable
define internal i32 @zbee_nwk_address_to_str(ptr noundef %0, ptr noundef %1, i32 noundef %2) #1 {
  %4 = alloca i32, align 4
  %5 = alloca ptr, align 8
  %6 = alloca ptr, align 8
  %7 = alloca i32, align 4
  %8 = alloca i16, align 2
  %9 = alloca i32, align 4
  store ptr %0, ptr %5, align 8
  store ptr %1, ptr %6, align 8
  store i32 %2, ptr %7, align 4
  call void @llvm.lifetime.start.p0(i64 2, ptr %8) #10
  %10 = load ptr, ptr %5, align 8
  %11 = getelementptr inbounds nuw %struct._address, ptr %10, i32 0, i32 2
  %12 = load ptr, ptr %11, align 8
  %13 = call zeroext i16 @pletoh16(ptr noundef %12)
  store i16 %13, ptr %8, align 2
  %14 = load i16, ptr %8, align 2
  %15 = zext i16 %14 to i32
  %16 = icmp eq i32 %15, 65535
  br i1 %16, label %25, label %17

17:                                               ; preds = %3
  %18 = load i16, ptr %8, align 2
  %19 = zext i16 %18 to i32
  %20 = icmp eq i32 %19, 65533
  br i1 %20, label %25, label %21

21:                                               ; preds = %17
  %22 = load i16, ptr %8, align 2
  %23 = zext i16 %22 to i32
  %24 = icmp eq i32 %23, 65532
  br i1 %24, label %25, label %32

25:                                               ; preds = %21, %17, %3
  %26 = load ptr, ptr %6, align 8
  %27 = load i32, ptr %7, align 4
  %28 = sext i32 %27 to i64
  %29 = call i64 @g_strlcpy(ptr noundef %26, ptr noundef @.str.378, i64 noundef %28)
  %30 = trunc i64 %29 to i32
  %31 = add i32 %30, 1
  store i32 %31, ptr %4, align 4
  store i32 1, ptr %9, align 4
  br label %42

32:                                               ; preds = %21
  %33 = load ptr, ptr %6, align 8
  %34 = load i32, ptr %7, align 4
  %35 = sext i32 %34 to i64
  %36 = load ptr, ptr %6, align 8
  %37 = call i64 @llvm.objectsize.i64.p0(ptr %36, i1 false, i1 true, i1 true)
  %38 = load i16, ptr %8, align 2
  %39 = zext i16 %38 to i32
  %40 = call i32 (ptr, i64, i32, i64, ptr, ...) @__snprintf_chk(ptr noundef %33, i64 noundef %35, i32 noundef 2, i64 noundef %37, ptr noundef @.str.379, i32 noundef %39)
  %41 = add i32 %40, 1
  store i32 %41, ptr %4, align 4
  store i32 1, ptr %9, align 4
  br label %42

42:                                               ; preds = %32, %25
  call void @llvm.lifetime.end.p0(i64 2, ptr %8) #10
  %43 = load i32, ptr %4, align 4
  ret i32 %43
}